; ModuleID = '64/3221.c'
source_filename = "64/3221.c"
target datalayout = "e-m:e-p270:32:32-p271:32:32-p272:64:64-i64:64-f80:128-n8:16:32:64-S128"
target triple = "x86_64-pc-linux-gnu"

@.str = private unnamed_addr constant [3 x i8] c"%d\00", align 1
@.str.1 = private unnamed_addr constant [7 x i8] c"%d%d%d\00", align 1
@.str.2 = private unnamed_addr constant [28 x i8] c"(%d,%d,%d)-(%d,%d,%d)=%.2f\0A\00", align 1

; Function Attrs: noinline nounwind uwtable
define dso_local void @main() #0 {
  %1 = alloca i32, align 4
  %2 = alloca i32, align 4
  %3 = alloca i32, align 4
  %4 = alloca i32, align 4
  %5 = alloca i32, align 4
  %6 = alloca [20 x i32], align 16
  %7 = alloca [20 x i32], align 16
  %8 = alloca [20 x i32], align 16
  %9 = alloca [100 x i32], align 16
  %10 = alloca [100 x i32], align 16
  %11 = alloca [100 x float], align 16
  %12 = alloca float, align 4
  store i32 0, i32* %5, align 4
  %13 = call i32 (i8*, ...) @__isoc99_scanf(i8* getelementptr inbounds ([3 x i8], [3 x i8]* @.str, i64 0, i64 0), i32* %1)
  store i32 1, i32* %2, align 4
  br label %14

14:                                               ; preds = %29, %0
  %15 = load i32, i32* %2, align 4
  %16 = load i32, i32* %1, align 4
  %17 = icmp sle i32 %15, %16
  br i1 %17, label %18, label %32

18:                                               ; preds = %14
  %19 = load i32, i32* %2, align 4
  %20 = sext i32 %19 to i64
  %21 = getelementptr inbounds [20 x i32], [20 x i32]* %6, i64 0, i64 %20
  %22 = load i32, i32* %2, align 4
  %23 = sext i32 %22 to i64
  %24 = getelementptr inbounds [20 x i32], [20 x i32]* %7, i64 0, i64 %23
  %25 = load i32, i32* %2, align 4
  %26 = sext i32 %25 to i64
  %27 = getelementptr inbounds [20 x i32], [20 x i32]* %8, i64 0, i64 %26
  %28 = call i32 (i8*, ...) @__isoc99_scanf(i8* getelementptr inbounds ([7 x i8], [7 x i8]* @.str.1, i64 0, i64 0), i32* %21, i32* %24, i32* %27)
  br label %29

29:                                               ; preds = %18
  %30 = load i32, i32* %2, align 4
  %31 = add nsw i32 %30, 1
  store i32 %31, i32* %2, align 4
  br label %14

32:                                               ; preds = %14
  store i32 1, i32* %2, align 4
  br label %33

33:                                               ; preds = %124, %32
  %34 = load i32, i32* %2, align 4
  %35 = load i32, i32* %1, align 4
  %36 = icmp slt i32 %34, %35
  br i1 %36, label %37, label %127

37:                                               ; preds = %33
  %38 = load i32, i32* %2, align 4
  %39 = add nsw i32 %38, 1
  store i32 %39, i32* %3, align 4
  br label %40

40:                                               ; preds = %120, %37
  %41 = load i32, i32* %3, align 4
  %42 = load i32, i32* %1, align 4
  %43 = icmp sle i32 %41, %42
  br i1 %43, label %44, label %123

44:                                               ; preds = %40
  %45 = load i32, i32* %5, align 4
  %46 = add nsw i32 %45, 1
  store i32 %46, i32* %5, align 4
  %47 = load i32, i32* %2, align 4
  %48 = sext i32 %47 to i64
  %49 = getelementptr inbounds [20 x i32], [20 x i32]* %6, i64 0, i64 %48
  %50 = load i32, i32* %49, align 4
  %51 = load i32, i32* %3, align 4
  %52 = sext i32 %51 to i64
  %53 = getelementptr inbounds [20 x i32], [20 x i32]* %6, i64 0, i64 %52
  %54 = load i32, i32* %53, align 4
  %55 = sub nsw i32 %50, %54
  %56 = load i32, i32* %2, align 4
  %57 = sext i32 %56 to i64
  %58 = getelementptr inbounds [20 x i32], [20 x i32]* %6, i64 0, i64 %57
  %59 = load i32, i32* %58, align 4
  %60 = load i32, i32* %3, align 4
  %61 = sext i32 %60 to i64
  %62 = getelementptr inbounds [20 x i32], [20 x i32]* %6, i64 0, i64 %61
  %63 = load i32, i32* %62, align 4
  %64 = sub nsw i32 %59, %63
  %65 = mul nsw i32 %55, %64
  %66 = load i32, i32* %2, align 4
  %67 = sext i32 %66 to i64
  %68 = getelementptr inbounds [20 x i32], [20 x i32]* %7, i64 0, i64 %67
  %69 = load i32, i32* %68, align 4
  %70 = load i32, i32* %3, align 4
  %71 = sext i32 %70 to i64
  %72 = getelementptr inbounds [20 x i32], [20 x i32]* %7, i64 0, i64 %71
  %73 = load i32, i32* %72, align 4
  %74 = sub nsw i32 %69, %73
  %75 = load i32, i32* %2, align 4
  %76 = sext i32 %75 to i64
  %77 = getelementptr inbounds [20 x i32], [20 x i32]* %7, i64 0, i64 %76
  %78 = load i32, i32* %77, align 4
  %79 = load i32, i32* %3, align 4
  %80 = sext i32 %79 to i64
  %81 = getelementptr inbounds [20 x i32], [20 x i32]* %7, i64 0, i64 %80
  %82 = load i32, i32* %81, align 4
  %83 = sub nsw i32 %78, %82
  %84 = mul nsw i32 %74, %83
  %85 = add nsw i32 %65, %84
  %86 = load i32, i32* %2, align 4
  %87 = sext i32 %86 to i64
  %88 = getelementptr inbounds [20 x i32], [20 x i32]* %8, i64 0, i64 %87
  %89 = load i32, i32* %88, align 4
  %90 = load i32, i32* %3, align 4
  %91 = sext i32 %90 to i64
  %92 = getelementptr inbounds [20 x i32], [20 x i32]* %8, i64 0, i64 %91
  %93 = load i32, i32* %92, align 4
  %94 = sub nsw i32 %89, %93
  %95 = load i32, i32* %2, align 4
  %96 = sext i32 %95 to i64
  %97 = getelementptr inbounds [20 x i32], [20 x i32]* %8, i64 0, i64 %96
  %98 = load i32, i32* %97, align 4
  %99 = load i32, i32* %3, align 4
  %100 = sext i32 %99 to i64
  %101 = getelementptr inbounds [20 x i32], [20 x i32]* %8, i64 0, i64 %100
  %102 = load i32, i32* %101, align 4
  %103 = sub nsw i32 %98, %102
  %104 = mul nsw i32 %94, %103
  %105 = add nsw i32 %85, %104
  %106 = sitofp i32 %105 to double
  %107 = call double @sqrt(double %106) #3
  %108 = fptrunc double %107 to float
  %109 = load i32, i32* %5, align 4
  %110 = sext i32 %109 to i64
  %111 = getelementptr inbounds [100 x float], [100 x float]* %11, i64 0, i64 %110
  store float %108, float* %111, align 4
  %112 = load i32, i32* %2, align 4
  %113 = load i32, i32* %5, align 4
  %114 = sext i32 %113 to i64
  %115 = getelementptr inbounds [100 x i32], [100 x i32]* %9, i64 0, i64 %114
  store i32 %112, i32* %115, align 4
  %116 = load i32, i32* %3, align 4
  %117 = load i32, i32* %5, align 4
  %118 = sext i32 %117 to i64
  %119 = getelementptr inbounds [100 x i32], [100 x i32]* %10, i64 0, i64 %118
  store i32 %116, i32* %119, align 4
  br label %120

120:                                              ; preds = %44
  %121 = load i32, i32* %3, align 4
  %122 = add nsw i32 %121, 1
  store i32 %122, i32* %3, align 4
  br label %40

123:                                              ; preds = %40
  br label %124

124:                                              ; preds = %123
  %125 = load i32, i32* %2, align 4
  %126 = add nsw i32 %125, 1
  store i32 %126, i32* %2, align 4
  br label %33

127:                                              ; preds = %33
  store i32 1, i32* %2, align 4
  br label %128

128:                                              ; preds = %213, %127
  %129 = load i32, i32* %2, align 4
  %130 = load i32, i32* %1, align 4
  %131 = load i32, i32* %1, align 4
  %132 = sub nsw i32 %131, 1
  %133 = mul nsw i32 %130, %132
  %134 = sdiv i32 %133, 2
  %135 = icmp slt i32 %129, %134
  br i1 %135, label %136, label %216

136:                                              ; preds = %128
  store i32 1, i32* %3, align 4
  br label %137

137:                                              ; preds = %209, %136
  %138 = load i32, i32* %3, align 4
  %139 = load i32, i32* %1, align 4
  %140 = load i32, i32* %1, align 4
  %141 = sub nsw i32 %140, 1
  %142 = mul nsw i32 %139, %141
  %143 = sdiv i32 %142, 2
  %144 = icmp slt i32 %138, %143
  br i1 %144, label %145, label %212

145:                                              ; preds = %137
  %146 = load i32, i32* %3, align 4
  %147 = sext i32 %146 to i64
  %148 = getelementptr inbounds [100 x float], [100 x float]* %11, i64 0, i64 %147
  %149 = load float, float* %148, align 4
  %150 = load i32, i32* %3, align 4
  %151 = add nsw i32 %150, 1
  %152 = sext i32 %151 to i64
  %153 = getelementptr inbounds [100 x float], [100 x float]* %11, i64 0, i64 %152
  %154 = load float, float* %153, align 4
  %155 = fcmp olt float %149, %154
  br i1 %155, label %156, label %208

156:                                              ; preds = %145
  %157 = load i32, i32* %3, align 4
  %158 = sext i32 %157 to i64
  %159 = getelementptr inbounds [100 x float], [100 x float]* %11, i64 0, i64 %158
  %160 = load float, float* %159, align 4
  store float %160, float* %12, align 4
  %161 = load i32, i32* %3, align 4
  %162 = add nsw i32 %161, 1
  %163 = sext i32 %162 to i64
  %164 = getelementptr inbounds [100 x float], [100 x float]* %11, i64 0, i64 %163
  %165 = load float, float* %164, align 4
  %166 = load i32, i32* %3, align 4
  %167 = sext i32 %166 to i64
  %168 = getelementptr inbounds [100 x float], [100 x float]* %11, i64 0, i64 %167
  store float %165, float* %168, align 4
  %169 = load float, float* %12, align 4
  %170 = load i32, i32* %3, align 4
  %171 = add nsw i32 %170, 1
  %172 = sext i32 %171 to i64
  %173 = getelementptr inbounds [100 x float], [100 x float]* %11, i64 0, i64 %172
  store float %169, float* %173, align 4
  %174 = load i32, i32* %3, align 4
  %175 = sext i32 %174 to i64
  %176 = getelementptr inbounds [100 x i32], [100 x i32]* %9, i64 0, i64 %175
  %177 = load i32, i32* %176, align 4
  store i32 %177, i32* %4, align 4
  %178 = load i32, i32* %3, align 4
  %179 = add nsw i32 %178, 1
  %180 = sext i32 %179 to i64
  %181 = getelementptr inbounds [100 x i32], [100 x i32]* %9, i64 0, i64 %180
  %182 = load i32, i32* %181, align 4
  %183 = load i32, i32* %3, align 4
  %184 = sext i32 %183 to i64
  %185 = getelementptr inbounds [100 x i32], [100 x i32]* %9, i64 0, i64 %184
  store i32 %182, i32* %185, align 4
  %186 = load i32, i32* %4, align 4
  %187 = load i32, i32* %3, align 4
  %188 = add nsw i32 %187, 1
  %189 = sext i32 %188 to i64
  %190 = getelementptr inbounds [100 x i32], [100 x i32]* %9, i64 0, i64 %189
  store i32 %186, i32* %190, align 4
  %191 = load i32, i32* %3, align 4
  %192 = sext i32 %191 to i64
  %193 = getelementptr inbounds [100 x i32], [100 x i32]* %10, i64 0, i64 %192
  %194 = load i32, i32* %193, align 4
  store i32 %194, i32* %4, align 4
  %195 = load i32, i32* %3, align 4
  %196 = add nsw i32 %195, 1
  %197 = sext i32 %196 to i64
  %198 = getelementptr inbounds [100 x i32], [100 x i32]* %10, i64 0, i64 %197
  %199 = load i32, i32* %198, align 4
  %200 = load i32, i32* %3, align 4
  %201 = sext i32 %200 to i64
  %202 = getelementptr inbounds [100 x i32], [100 x i32]* %10, i64 0, i64 %201
  store i32 %199, i32* %202, align 4
  %203 = load i32, i32* %4, align 4
  %204 = load i32, i32* %3, align 4
  %205 = add nsw i32 %204, 1
  %206 = sext i32 %205 to i64
  %207 = getelementptr inbounds [100 x i32], [100 x i32]* %10, i64 0, i64 %206
  store i32 %203, i32* %207, align 4
  br label %208

208:                                              ; preds = %156, %145
  br label %209

209:                                              ; preds = %208
  %210 = load i32, i32* %3, align 4
  %211 = add nsw i32 %210, 1
  store i32 %211, i32* %3, align 4
  br label %137

212:                                              ; preds = %137
  br label %213

213:                                              ; preds = %212
  %214 = load i32, i32* %2, align 4
  %215 = add nsw i32 %214, 1
  store i32 %215, i32* %2, align 4
  br label %128

216:                                              ; preds = %128
  store i32 1, i32* %2, align 4
  br label %217

217:                                              ; preds = %274, %216
  %218 = load i32, i32* %2, align 4
  %219 = load i32, i32* %1, align 4
  %220 = load i32, i32* %1, align 4
  %221 = sub nsw i32 %220, 1
  %222 = mul nsw i32 %219, %221
  %223 = sdiv i32 %222, 2
  %224 = icmp sle i32 %218, %223
  br i1 %224, label %225, label %277

225:                                              ; preds = %217
  %226 = load i32, i32* %2, align 4
  %227 = sext i32 %226 to i64
  %228 = getelementptr inbounds [100 x i32], [100 x i32]* %9, i64 0, i64 %227
  %229 = load i32, i32* %228, align 4
  %230 = sext i32 %229 to i64
  %231 = getelementptr inbounds [20 x i32], [20 x i32]* %6, i64 0, i64 %230
  %232 = load i32, i32* %231, align 4
  %233 = load i32, i32* %2, align 4
  %234 = sext i32 %233 to i64
  %235 = getelementptr inbounds [100 x i32], [100 x i32]* %9, i64 0, i64 %234
  %236 = load i32, i32* %235, align 4
  %237 = sext i32 %236 to i64
  %238 = getelementptr inbounds [20 x i32], [20 x i32]* %7, i64 0, i64 %237
  %239 = load i32, i32* %238, align 4
  %240 = load i32, i32* %2, align 4
  %241 = sext i32 %240 to i64
  %242 = getelementptr inbounds [100 x i32], [100 x i32]* %9, i64 0, i64 %241
  %243 = load i32, i32* %242, align 4
  %244 = sext i32 %243 to i64
  %245 = getelementptr inbounds [20 x i32], [20 x i32]* %8, i64 0, i64 %244
  %246 = load i32, i32* %245, align 4
  %247 = load i32, i32* %2, align 4
  %248 = sext i32 %247 to i64
  %249 = getelementptr inbounds [100 x i32], [100 x i32]* %10, i64 0, i64 %248
  %250 = load i32, i32* %249, align 4
  %251 = sext i32 %250 to i64
  %252 = getelementptr inbounds [20 x i32], [20 x i32]* %6, i64 0, i64 %251
  %253 = load i32, i32* %252, align 4
  %254 = load i32, i32* %2, align 4
  %255 = sext i32 %254 to i64
  %256 = getelementptr inbounds [100 x i32], [100 x i32]* %10, i64 0, i64 %255
  %257 = load i32, i32* %256, align 4
  %258 = sext i32 %257 to i64
  %259 = getelementptr inbounds [20 x i32], [20 x i32]* %7, i64 0, i64 %258
  %260 = load i32, i32* %259, align 4
  %261 = load i32, i32* %2, align 4
  %262 = sext i32 %261 to i64
  %263 = getelementptr inbounds [100 x i32], [100 x i32]* %10, i64 0, i64 %262
  %264 = load i32, i32* %263, align 4
  %265 = sext i32 %264 to i64
  %266 = getelementptr inbounds [20 x i32], [20 x i32]* %8, i64 0, i64 %265
  %267 = load i32, i32* %266, align 4
  %268 = load i32, i32* %2, align 4
  %269 = sext i32 %268 to i64
  %270 = getelementptr inbounds [100 x float], [100 x float]* %11, i64 0, i64 %269
  %271 = load float, float* %270, align 4
  %272 = fpext float %271 to double
  %273 = call i32 (i8*, ...) @printf(i8* getelementptr inbounds ([28 x i8], [28 x i8]* @.str.2, i64 0, i64 0), i32 %232, i32 %239, i32 %246, i32 %253, i32 %260, i32 %267, double %272)
  br label %274

274:                                              ; preds = %225
  %275 = load i32, i32* %2, align 4
  %276 = add nsw i32 %275, 1
  store i32 %276, i32* %2, align 4
  br label %217

277:                                              ; preds = %217
  ret void
}

declare dso_local i32 @__isoc99_scanf(i8*, ...) #1

; Function Attrs: nounwind
declare dso_local double @sqrt(double) #2

declare dso_local i32 @printf(i8*, ...) #1


!llvm.module.flags = !{!0}
!llvm.ident = !{!1}

!0 = !{i32 1, !"wchar_size", i32 4}
!1 = !{!"clang version 10.0.0-4ubuntu1 "}
